Certificate:
    Data:
        Version: 3 (0x2)
        Serial Number:
            4c:f7:13:d9:55:8e:15:90:45:ca:0d:62:46:cf:40:2b
    Signature Algorithm: sha256WithRSAEncryption
        Issuer: CN=Easy-RSA CA
        Validity
            Not Before: Jun  4 12:30:54 2022 GMT
            Not After : Sep  6 12:30:54 2024 GMT
        Subject: CN=1.1.1.1
        Subject Public Key Info:
            Public Key Algorithm: rsaEncryption
                Public-Key: (2048 bit)
                Modulus:
                    00:e5:8a:38:a1:ef:37:63:99:84:ed:e9:e4:95:2c:
                    26:1c:ef:50:fd:02:5f:24:2e:38:53:38:fe:02:b9:
                    d1:ec:f2:ad:7b:22:5c:9c:c5:a0:68:4e:41:07:42:
                    85:c3:32:fa:ec:39:59:01:ed:8b:d2:af:7e:54:a6:
                    15:9a:08:d5:05:af:6f:d1:90:16:f2:65:dc:9a:4c:
                    96:85:61:d2:d8:de:51:f8:a3:51:14:d0:e3:01:51:
                    64:5d:2c:21:2e:e6:70:83:4f:b7:76:48:8f:0e:6c:
                    62:88:32:fb:63:fa:5e:a3:9f:37:e6:3b:6e:c8:1c:
                    dc:ba:a2:d6:b0:21:b8:24:5c:7e:49:7f:17:b1:39:
                    15:76:0c:b2:f9:fb:b2:fd:ae:a6:15:b3:51:86:30:
                    c2:78:a1:3e:06:d0:54:12:29:ea:ad:dd:00:c2:cc:
                    c7:ca:41:8b:cf:f9:72:31:8b:38:3c:f6:d8:df:b0:
                    5d:23:c8:0e:a3:0f:4f:a0:1d:93:7b:79:a1:ad:82:
                    c9:6a:7b:c4:08:0c:fb:81:bd:21:ff:90:02:a0:5f:
                    d7:85:1e:2f:9e:0d:59:f9:bb:b1:66:8e:c5:aa:75:
                    3c:4f:d6:a5:1f:fc:80:9a:56:6a:94:d4:ce:f3:9d:
                    e2:8a:d9:9b:25:57:02:e2:7f:45:01:b5:e0:a8:42:
                    82:a7
                Exponent: 65537 (0x10001)
        X509v3 extensions:
            X509v3 Basic Constraints: 
                CA:FALSE
            X509v3 Subject Key Identifier: 
                50:9D:40:E4:22:EA:15:1C:4C:71:88:71:BD:73:80:3D:5C:5B:34:1F
            X509v3 Authority Key Identifier: 
                keyid:FA:91:53:CF:B9:FA:39:05:5F:8D:24:D1:9D:0D:E3:22:58:CF:02:E7
                DirName:/CN=Easy-RSA CA
                serial:E9:7C:A2:6F:79:18:47:5C

            X509v3 Extended Key Usage: 
                TLS Web Server Authentication
            X509v3 Key Usage: 
                Digital Signature, Key Encipherment
            X509v3 Subject Alternative Name: 
                IP Address:1.1.1.1
    Signature Algorithm: sha256WithRSAEncryption
         14:ca:75:93:f8:b4:37:ff:d6:c6:92:3a:fe:bb:c0:9c:14:54:
         04:b6:69:b2:04:c4:17:94:6b:cc:f5:6c:72:c4:4e:15:1b:b8:
         25:ef:f9:ff:6e:66:3e:9b:0a:2c:c1:bd:78:61:9e:ea:d5:b6:
         fc:b1:05:af:d0:32:11:d9:fb:22:44:43:ed:f0:8c:a5:93:6f:
         96:d0:37:a5:21:34:e2:cf:e2:a4:9a:e5:52:6e:5f:35:41:73:
         7e:b5:4e:cd:da:98:a5:47:ac:99:0f:8a:03:99:16:80:74:3f:
         b1:8a:2f:00:42:89:d5:a1:91:ae:15:5c:5b:81:b6:ad:69:ae:
         b9:3e:78:3a:2f:aa:f5:c8:a9:38:4d:04:91:4e:e8:74:9d:89:
         38:93:08:df:08:4d:57:92:61:73:a0:b4:2b:1d:f5:00:d4:f2:
         e2:d1:24:47:d7:65:e9:99:4e:d2:45:e4:43:cb:60:67:c6:81:
         85:b9:84:40:53:70:8c:51:64:d4:8e:b5:b7:07:fb:83:2c:48:
         dd:c0:1f:31:fa:0f:94:6e:ae:90:9b:c6:33:6d:c2:b3:4e:c6:
         07:af:c8:7a:03:f5:6a:5f:cf:90:04:3d:b5:55:65:a5:b8:bf:
         4f:ec:a9:73:7e:b4:1c:6d:aa:85:5d:9c:40:23:4a:ba:50:e7:
         c9:29:e9:11
-----BEGIN CERTIFICATE-----
MIIDWzCCAkOgAwIBAgIQTPcT2VWOFZBFyg1iRs9AKzANBgkqhkiG9w0BAQsFADAW
MRQwEgYDVQQDDAtFYXN5LVJTQSBDQTAeFw0yMjA2MDQxMjMwNTRaFw0yNDA5MDYx
MjMwNTRaMBIxEDAOBgNVBAMMBzEuMS4xLjEwggEiMA0GCSqGSIb3DQEBAQUAA4IB
DwAwggEKAoIBAQDlijih7zdjmYTt6eSVLCYc71D9Al8kLjhTOP4CudHs8q17Ilyc
xaBoTkEHQoXDMvrsOVkB7YvSr35UphWaCNUFr2/RkBbyZdyaTJaFYdLY3lH4o1EU
0OMBUWRdLCEu5nCDT7d2SI8ObGKIMvtj+l6jnzfmO27IHNy6otawIbgkXH5Jfxex
ORV2DLL5+7L9rqYVs1GGMMJ4oT4G0FQSKeqt3QDCzMfKQYvP+XIxizg89tjfsF0j
yA6jD0+gHZN7eaGtgslqe8QIDPuBvSH/kAKgX9eFHi+eDVn5u7FmjsWqdTxP1qUf
/ICaVmqU1M7zneKK2ZslVwLif0UBteCoQoKnAgMBAAGjgagwgaUwCQYDVR0TBAIw
ADAdBgNVHQ4EFgQUUJ1A5CLqFRxMcYhxvXOAPVxbNB8wRgYDVR0jBD8wPYAU+pFT
z7n6OQVfjSTRnQ3jIljPAuehGqQYMBYxFDASBgNVBAMMC0Vhc3ktUlNBIENBggkA
6Xyib3kYR1wwEwYDVR0lBAwwCgYIKwYBBQUHAwEwCwYDVR0PBAQDAgWgMA8GA1Ud
EQQIMAaHBAEBAQEwDQYJKoZIhvcNAQELBQADggEBABTKdZP4tDf/1saSOv67wJwU
VAS2abIExBeUa8z1bHLEThUbuCXv+f9uZj6bCizBvXhhnurVtvyxBa/QMhHZ+yJE
Q+3wjKWTb5bQN6UhNOLP4qSa5VJuXzVBc361Ts3amKVHrJkPigOZFoB0P7GKLwBC
idWhka4VXFuBtq1prrk+eDovqvXIqThNBJFO6HSdiTiTCN8ITVeSYXOgtCsd9QDU
8uLRJEfXZemZTtJF5EPLYGfGgYW5hEBTcIxRZNSOtbcH+4MsSN3AHzH6D5RurpCb
xjNtwrNOxgevyHoD9Wpfz5AEPbVVZaW4v0/sqXN+tBxtqoVdnEAjSrpQ58kp6RE=
-----END CERTIFICATE-----
